; Function Attrs: nounwind uwtable
define dso_local noundef ptr @str_toupper(ptr noundef %0, i64 noundef %1, i32 noundef %2) local_unnamed_addr #0 {
  %.not = icmp eq ptr %0, null
  br i1 %.not, label %asc_toupper.exit, label %4

4:                                                ; preds = %3
  %.not32 = icmp eq i32 %2, 0
  br i1 %.not32, label %5, label %10

5:                                                ; preds = %4
  %6 = tail call zeroext i1 @errstart_cold(i32 noundef 21, ptr noundef null) #17
  tail call void @llvm.assume(i1 %6)
  %7 = tail call i32 @errcode(i32 noundef 34209924) #18
  %8 = tail call i32 (ptr, ...) @errmsg(ptr noundef nonnull @.str, ptr noundef nonnull @.str.4) #18
  %9 = tail call i32 (ptr, ...) @errhint(ptr noundef nonnull @.str.2) #18
  tail call void @errfinish(ptr noundef nonnull @.str.3, i32 noundef 1719, ptr noundef nonnull @__func__.str_toupper) #18
  unreachable

10:                                               ; preds = %4
  %11 = tail call ptr @pg_newlocale_from_collation(i32 noundef %2) #18
  %12 = getelementptr inbounds nuw i8, ptr %11, i64 3
  %13 = load i8, ptr %12, align 1, !range !4, !noundef !5
  %14 = trunc nuw i8 %13 to i1
  br i1 %14, label %15, label %22

15:                                               ; preds = %10
  %16 = tail call ptr @pnstrdup(ptr noundef nonnull %0, i64 noundef %1) #18
  %17 = load i8, ptr %16, align 1
  %.not1213.i = icmp eq i8 %17, 0
  br i1 %.not1213.i, label %asc_toupper.exit, label %.lr.ph.i

.lr.ph.i:                                         ; preds = %15, %.lr.ph.i
  %18 = phi i8 [ %21, %.lr.ph.i ], [ %17, %15 ]
  %.014.i = phi ptr [ %20, %.lr.ph.i ], [ %16, %15 ]
  %19 = tail call zeroext i8 @pg_ascii_toupper(i8 noundef zeroext %18) #18
  store i8 %19, ptr %.014.i, align 1
  %20 = getelementptr inbounds nuw i8, ptr %.014.i, i64 1
  %21 = load i8, ptr %20, align 1
  %.not12.i = icmp eq i8 %21, 0
  br i1 %.not12.i, label %asc_toupper.exit, label %.lr.ph.i, !llvm.loop !8

22:                                               ; preds = %10
  %23 = add i64 %1, 1
  %24 = tail call ptr @palloc(i64 noundef %23) #18
  %25 = tail call i64 @pg_strupper(ptr noundef %24, i64 noundef %23, ptr noundef nonnull %0, i64 noundef %1, ptr noundef nonnull %11) #18
  %26 = add i64 %25, 1
  %27 = icmp ugt i64 %26, %23
  br i1 %27, label %28, label %asc_toupper.exit

28:                                               ; preds = %22
  %29 = tail call ptr @repalloc(ptr noundef %24, i64 noundef %26) #18
  %30 = tail call i64 @pg_strupper(ptr noundef %29, i64 noundef %26, ptr noundef nonnull %0, i64 noundef %1, ptr noundef nonnull %11) #18
  br label %asc_toupper.exit

asc_toupper.exit:                                 ; preds = %.lr.ph.i, %15, %28, %22, %3
  %.027 = phi ptr [ null, %3 ], [ %29, %28 ], [ %24, %22 ], [ %16, %15 ], [ %16, %.lr.ph.i ]
  ret ptr %.027
}